#include <math.h>
#include <stdio.h>
#include <stdlib.h>
#include <string.h>


int main(int argc, char* argv[])
{
  char s[50];
  char*p=s;
  gets(s);
  int j=0,k,i=0,l;
  for(;*p!=' ';p++)
  {
	  j++;
  }
  k=j+1;
  for(;s[i]!=s[k];k++);
  for(;;k++)
  {
	  for(;s[i]==s[k];i++,k++);
	  if(i==j) {
		  l=k-2*j-1;
		  break;
	  }
	  else continue;
  }
  printf("%d",l);

 return 0;
}
  


  
	
