; ModuleID = '45/99.c'
source_filename = "45/99.c"
target datalayout = "e-m:e-p270:32:32-p271:32:32-p272:64:64-i64:64-f80:128-n8:16:32:64-S128"
target triple = "x86_64-pc-linux-gnu"

@.str = private unnamed_addr constant [3 x i8] c"%d\00", align 1

; Function Attrs: noinline nounwind uwtable
define dso_local i32 @main(i32 %0, i8** %1) #0 {
  %3 = alloca i32, align 4
  %4 = alloca i32, align 4
  %5 = alloca i8**, align 8
  %6 = alloca [50 x i8], align 16
  %7 = alloca i8*, align 8
  %8 = alloca i32, align 4
  %9 = alloca i32, align 4
  %10 = alloca i32, align 4
  %11 = alloca i32, align 4
  store i32 0, i32* %3, align 4
  store i32 %0, i32* %4, align 4
  store i8** %1, i8*** %5, align 8
  %12 = getelementptr inbounds [50 x i8], [50 x i8]* %6, i64 0, i64 0
  store i8* %12, i8** %7, align 8
  %13 = getelementptr inbounds [50 x i8], [50 x i8]* %6, i64 0, i64 0
  %14 = call i32 (i8*, ...) bitcast (i32 (...)* @gets to i32 (i8*, ...)*)(i8* %13)
  store i32 0, i32* %8, align 4
  store i32 0, i32* %10, align 4
  br label %15

15:                                               ; preds = %23, %2
  %16 = load i8*, i8** %7, align 8
  %17 = load i8, i8* %16, align 1
  %18 = sext i8 %17 to i32
  %19 = icmp ne i32 %18, 32
  br i1 %19, label %20, label %26

20:                                               ; preds = %15
  %21 = load i32, i32* %8, align 4
  %22 = add nsw i32 %21, 1
  store i32 %22, i32* %8, align 4
  br label %23

23:                                               ; preds = %20
  %24 = load i8*, i8** %7, align 8
  %25 = getelementptr inbounds i8, i8* %24, i32 1
  store i8* %25, i8** %7, align 8
  br label %15

26:                                               ; preds = %15
  %27 = load i32, i32* %8, align 4
  %28 = add nsw i32 %27, 1
  store i32 %28, i32* %9, align 4
  br label %29

29:                                               ; preds = %42, %26
  %30 = load i32, i32* %10, align 4
  %31 = sext i32 %30 to i64
  %32 = getelementptr inbounds [50 x i8], [50 x i8]* %6, i64 0, i64 %31
  %33 = load i8, i8* %32, align 1
  %34 = sext i8 %33 to i32
  %35 = load i32, i32* %9, align 4
  %36 = sext i32 %35 to i64
  %37 = getelementptr inbounds [50 x i8], [50 x i8]* %6, i64 0, i64 %36
  %38 = load i8, i8* %37, align 1
  %39 = sext i8 %38 to i32
  %40 = icmp ne i32 %34, %39
  br i1 %40, label %41, label %45

41:                                               ; preds = %29
  br label %42

42:                                               ; preds = %41
  %43 = load i32, i32* %9, align 4
  %44 = add nsw i32 %43, 1
  store i32 %44, i32* %9, align 4
  br label %29

45:                                               ; preds = %29
  br label %46

46:                                               ; preds = %76, %45
  br label %47

47:                                               ; preds = %60, %46
  %48 = load i32, i32* %10, align 4
  %49 = sext i32 %48 to i64
  %50 = getelementptr inbounds [50 x i8], [50 x i8]* %6, i64 0, i64 %49
  %51 = load i8, i8* %50, align 1
  %52 = sext i8 %51 to i32
  %53 = load i32, i32* %9, align 4
  %54 = sext i32 %53 to i64
  %55 = getelementptr inbounds [50 x i8], [50 x i8]* %6, i64 0, i64 %54
  %56 = load i8, i8* %55, align 1
  %57 = sext i8 %56 to i32
  %58 = icmp eq i32 %52, %57
  br i1 %58, label %59, label %65

59:                                               ; preds = %47
  br label %60

60:                                               ; preds = %59
  %61 = load i32, i32* %10, align 4
  %62 = add nsw i32 %61, 1
  store i32 %62, i32* %10, align 4
  %63 = load i32, i32* %9, align 4
  %64 = add nsw i32 %63, 1
  store i32 %64, i32* %9, align 4
  br label %47

65:                                               ; preds = %47
  %66 = load i32, i32* %10, align 4
  %67 = load i32, i32* %8, align 4
  %68 = icmp eq i32 %66, %67
  br i1 %68, label %69, label %75

69:                                               ; preds = %65
  %70 = load i32, i32* %9, align 4
  %71 = load i32, i32* %8, align 4
  %72 = mul nsw i32 2, %71
  %73 = sub nsw i32 %70, %72
  %74 = sub nsw i32 %73, 1
  store i32 %74, i32* %11, align 4
  br label %79

75:                                               ; preds = %65
  br label %76

76:                                               ; preds = %75
  %77 = load i32, i32* %9, align 4
  %78 = add nsw i32 %77, 1
  store i32 %78, i32* %9, align 4
  br label %46

79:                                               ; preds = %69
  %80 = load i32, i32* %11, align 4
  %81 = call i32 (i8*, ...) @printf(i8* getelementptr inbounds ([3 x i8], [3 x i8]* @.str, i64 0, i64 0), i32 %80)
  ret i32 0
}

declare dso_local i32 @gets(...) #1

declare dso_local i32 @printf(i8*, ...) #1


!llvm.module.flags = !{!0}
!llvm.ident = !{!1}

!0 = !{i32 1, !"wchar_size", i32 4}
!1 = !{!"clang version 10.0.0-4ubuntu1 "}
